target datalayout = "e-m:e-p270:32:32-p271:32:32-p272:64:64-i64:64-i128:128-f80:128-n8:16:32:64-S128"
target triple = "x86_64-pc-linux-gnu"

%struct.PageHeaderData = type { %struct.PageXLogRecPtr, i16, i16, i16, i16, i16, i16, i32, [0 x %struct.ItemIdData] }
%struct.PageXLogRecPtr = type { i32, i32 }
%struct.ItemIdData = type { i32 }
%struct.BTDedupStateData = type { i8, i32, i64, ptr, i16, i64, ptr, i32, i32, i64, i32, [408 x %struct.BTDedupInterval] }
%struct.BTDedupInterval = type { i16, i16 }
%struct.IndexTupleData = type { %struct.ItemPointerData, i16 }
%struct.ItemPointerData = type { %struct.BlockIdData, i16 }
%struct.BlockIdData = type { i16, i16 }

@.str.1 = private unnamed_addr constant [11 x i8] c"nbtdedup.c\00", align 1
@.str.2 = private unnamed_addr constant [42 x i8] c"deduplication failed to add tuple to page\00", align 1
@__func__._bt_dedup_finish_pending = private unnamed_addr constant [25 x i8] c"_bt_dedup_finish_pending\00", align 1

; Function Attrs: inlinehint nounwind uwtable
define internal void @BlockIdSet(ptr noundef %0, i32 noundef %1) #2 {
  %3 = alloca ptr, align 8
  %4 = alloca i32, align 4
  store ptr %0, ptr %3, align 8
  store i32 %1, ptr %4, align 4
  %5 = load i32, ptr %4, align 4
  %6 = lshr i32 %5, 16
  %7 = trunc i32 %6 to i16
  %8 = load ptr, ptr %3, align 8
  %9 = getelementptr inbounds nuw %struct.BlockIdData, ptr %8, i32 0, i32 0
  store i16 %7, ptr %9, align 2
  %10 = load i32, ptr %4, align 4
  %11 = and i32 %10, 65535
  %12 = trunc i32 %11 to i16
  %13 = load ptr, ptr %3, align 8
  %14 = getelementptr inbounds nuw %struct.BlockIdData, ptr %13, i32 0, i32 1
  store i16 %12, ptr %14, align 2
  ret void
}

; Function Attrs: inlinehint nounwind uwtable
define internal i32 @BlockIdGetBlockNumber(ptr noundef %0) #2 {
  %2 = alloca ptr, align 8
  store ptr %0, ptr %2, align 8
  %3 = load ptr, ptr %2, align 8
  %4 = getelementptr inbounds nuw %struct.BlockIdData, ptr %3, i32 0, i32 0
  %5 = load i16, ptr %4, align 2
  %6 = zext i16 %5 to i32
  %7 = shl i32 %6, 16
  %8 = load ptr, ptr %2, align 8
  %9 = getelementptr inbounds nuw %struct.BlockIdData, ptr %8, i32 0, i32 1
  %10 = load i16, ptr %9, align 2
  %11 = zext i16 %10 to i32
  %12 = or i32 %7, %11
  ret i32 %12
}

; Function Attrs: inlinehint nounwind uwtable
define internal void @ItemPointerSetBlockNumber(ptr noundef %0, i32 noundef %1) #2 {
  %3 = alloca ptr, align 8
  %4 = alloca i32, align 4
  store ptr %0, ptr %3, align 8
  store i32 %1, ptr %4, align 4
  %5 = load ptr, ptr %3, align 8
  %6 = getelementptr inbounds nuw %struct.ItemPointerData, ptr %5, i32 0, i32 0
  %7 = load i32, ptr %4, align 4
  call void @BlockIdSet(ptr noundef %6, i32 noundef %7)
  ret void
}

; Function Attrs: inlinehint nounwind uwtable
define internal void @ItemPointerSetOffsetNumber(ptr noundef %0, i16 noundef zeroext %1) #2 {
  %3 = alloca ptr, align 8
  %4 = alloca i16, align 2
  store ptr %0, ptr %3, align 8
  store i16 %1, ptr %4, align 2
  %5 = load i16, ptr %4, align 2
  %6 = load ptr, ptr %3, align 8
  %7 = getelementptr inbounds nuw %struct.ItemPointerData, ptr %6, i32 0, i32 1
  store i16 %5, ptr %7, align 2
  ret void
}

; Function Attrs: inlinehint nounwind uwtable
define internal i32 @ItemPointerGetBlockNumberNoCheck(ptr noundef %0) #2 {
  %2 = alloca ptr, align 8
  store ptr %0, ptr %2, align 8
  %3 = load ptr, ptr %2, align 8
  %4 = getelementptr inbounds nuw %struct.ItemPointerData, ptr %3, i32 0, i32 0
  %5 = call i32 @BlockIdGetBlockNumber(ptr noundef %4)
  ret i32 %5
}

; Function Attrs: inlinehint nounwind uwtable
define internal zeroext i16 @ItemPointerGetOffsetNumberNoCheck(ptr noundef %0) #2 {
  %2 = alloca ptr, align 8
  store ptr %0, ptr %2, align 8
  %3 = load ptr, ptr %2, align 8
  %4 = getelementptr inbounds nuw %struct.ItemPointerData, ptr %3, i32 0, i32 1
  %5 = load i16, ptr %4, align 2
  ret i16 %5
}

; Function Attrs: inlinehint nounwind uwtable
define internal void @ItemPointerCopy(ptr noundef %0, ptr noundef %1) #2 {
  %3 = alloca ptr, align 8
  %4 = alloca ptr, align 8
  store ptr %0, ptr %3, align 8
  store ptr %1, ptr %4, align 8
  %5 = load ptr, ptr %4, align 8
  %6 = load ptr, ptr %3, align 8
  call void @llvm.memcpy.p0.p0.i64(ptr align 2 %5, ptr align 2 %6, i64 6, i1 false)
  ret void
}

; Function Attrs: inlinehint nounwind uwtable
define internal ptr @BTreeTupleGetPosting(ptr noundef %0) #2 {
  %2 = alloca ptr, align 8
  store ptr %0, ptr %2, align 8
  %3 = load ptr, ptr %2, align 8
  %4 = load ptr, ptr %2, align 8
  %5 = call i32 @BTreeTupleGetPostingOffset(ptr noundef %4)
  %6 = zext i32 %5 to i64
  %7 = getelementptr inbounds nuw i8, ptr %3, i64 %6
  ret ptr %7
}

; Function Attrs: inlinehint nounwind uwtable
define internal void @BTreeTupleSetPosting(ptr noundef %0, i16 noundef zeroext %1, i32 noundef %2) #2 {
  %4 = alloca ptr, align 8
  %5 = alloca i16, align 2
  %6 = alloca i32, align 4
  store ptr %0, ptr %4, align 8
  store i16 %1, ptr %5, align 2
  store i32 %2, ptr %6, align 4
  %7 = load ptr, ptr %4, align 8
  %8 = getelementptr inbounds nuw %struct.IndexTupleData, ptr %7, i32 0, i32 1
  %9 = load i16, ptr %8, align 2
  %10 = zext i16 %9 to i32
  %11 = or i32 %10, 8192
  %12 = trunc i32 %11 to i16
  store i16 %12, ptr %8, align 2
  %13 = load ptr, ptr %4, align 8
  %14 = getelementptr inbounds nuw %struct.IndexTupleData, ptr %13, i32 0, i32 0
  %15 = load i16, ptr %5, align 2
  %16 = zext i16 %15 to i32
  %17 = or i32 %16, 8192
  %18 = trunc i32 %17 to i16
  call void @ItemPointerSetOffsetNumber(ptr noundef %14, i16 noundef zeroext %18)
  %19 = load ptr, ptr %4, align 8
  %20 = getelementptr inbounds nuw %struct.IndexTupleData, ptr %19, i32 0, i32 0
  %21 = load i32, ptr %6, align 4
  call void @ItemPointerSetBlockNumber(ptr noundef %20, i32 noundef %21)
  ret void
}

; Function Attrs: inlinehint nounwind uwtable
define internal i32 @BTreeTupleGetPostingOffset(ptr noundef %0) #2 {
  %2 = alloca ptr, align 8
  store ptr %0, ptr %2, align 8
  %3 = load ptr, ptr %2, align 8
  %4 = getelementptr inbounds nuw %struct.IndexTupleData, ptr %3, i32 0, i32 0
  %5 = call i32 @ItemPointerGetBlockNumberNoCheck(ptr noundef %4)
  ret i32 %5
}

; Function Attrs: inlinehint nounwind uwtable
define internal zeroext i1 @BTreeTupleIsPosting(ptr noundef %0) #2 {
  %2 = alloca i1, align 1
  %3 = alloca ptr, align 8
  store ptr %0, ptr %3, align 8
  %4 = load ptr, ptr %3, align 8
  %5 = getelementptr inbounds nuw %struct.IndexTupleData, ptr %4, i32 0, i32 1
  %6 = load i16, ptr %5, align 2
  %7 = zext i16 %6 to i32
  %8 = and i32 %7, 8192
  %9 = icmp eq i32 %8, 0
  br i1 %9, label %10, label %11

10:                                               ; preds = %1
  store i1 false, ptr %2, align 1
  br label %20

11:                                               ; preds = %1
  %12 = load ptr, ptr %3, align 8
  %13 = getelementptr inbounds nuw %struct.IndexTupleData, ptr %12, i32 0, i32 0
  %14 = call zeroext i16 @ItemPointerGetOffsetNumberNoCheck(ptr noundef %13)
  %15 = zext i16 %14 to i32
  %16 = and i32 %15, 8192
  %17 = icmp eq i32 %16, 0
  br i1 %17, label %18, label %19

18:                                               ; preds = %11
  store i1 false, ptr %2, align 1
  br label %20

19:                                               ; preds = %11
  store i1 true, ptr %2, align 1
  br label %20

20:                                               ; preds = %19, %18, %10
  %21 = load i1, ptr %2, align 1
  ret i1 %21
}

; Function Attrs: nounwind uwtable
define dso_local ptr @_bt_form_posting(ptr noundef %0, ptr noundef %1, i32 noundef %2) #0 {
  %4 = alloca ptr, align 8
  %5 = alloca ptr, align 8
  %6 = alloca i32, align 4
  %7 = alloca i32, align 4
  %8 = alloca i32, align 4
  %9 = alloca ptr, align 8
  store ptr %0, ptr %4, align 8
  store ptr %1, ptr %5, align 8
  store i32 %2, ptr %6, align 4
  call void @llvm.lifetime.start.p0(i64 4, ptr %7) #6
  call void @llvm.lifetime.start.p0(i64 4, ptr %8) #6
  call void @llvm.lifetime.start.p0(i64 8, ptr %9) #6
  %10 = load ptr, ptr %4, align 8
  %11 = call zeroext i1 @BTreeTupleIsPosting(ptr noundef %10)
  br i1 %11, label %12, label %15

12:                                               ; preds = %3
  %13 = load ptr, ptr %4, align 8
  %14 = call i32 @BTreeTupleGetPostingOffset(ptr noundef %13)
  store i32 %14, ptr %7, align 4
  br label %19

15:                                               ; preds = %3
  %16 = load ptr, ptr %4, align 8
  %17 = call i64 @IndexTupleSize(ptr noundef %16)
  %18 = trunc i64 %17 to i32
  store i32 %18, ptr %7, align 4
  br label %19

19:                                               ; preds = %15, %12
  %20 = load i32, ptr %6, align 4
  %21 = icmp sgt i32 %20, 1
  br i1 %21, label %22, label %32

22:                                               ; preds = %19
  %23 = load i32, ptr %7, align 4
  %24 = zext i32 %23 to i64
  %25 = load i32, ptr %6, align 4
  %26 = sext i32 %25 to i64
  %27 = mul i64 %26, 6
  %28 = add i64 %24, %27
  %29 = add i64 %28, 7
  %30 = and i64 %29, -8
  %31 = trunc i64 %30 to i32
  store i32 %31, ptr %8, align 4
  br label %34

32:                                               ; preds = %19
  %33 = load i32, ptr %7, align 4
  store i32 %33, ptr %8, align 4
  br label %34

34:                                               ; preds = %32, %22
  %35 = load i32, ptr %8, align 4
  %36 = zext i32 %35 to i64
  %37 = call ptr @palloc0(i64 noundef %36)
  store ptr %37, ptr %9, align 8
  %38 = load ptr, ptr %9, align 8
  %39 = load ptr, ptr %4, align 8
  %40 = load i32, ptr %7, align 4
  %41 = zext i32 %40 to i64
  call void @llvm.memcpy.p0.p0.i64(ptr align 2 %38, ptr align 2 %39, i64 %41, i1 false)
  %42 = load ptr, ptr %9, align 8
  %43 = getelementptr inbounds nuw %struct.IndexTupleData, ptr %42, i32 0, i32 1
  %44 = load i16, ptr %43, align 2
  %45 = zext i16 %44 to i32
  %46 = and i32 %45, -8192
  %47 = trunc i32 %46 to i16
  store i16 %47, ptr %43, align 2
  %48 = load i32, ptr %8, align 4
  %49 = load ptr, ptr %9, align 8
  %50 = getelementptr inbounds nuw %struct.IndexTupleData, ptr %49, i32 0, i32 1
  %51 = load i16, ptr %50, align 2
  %52 = zext i16 %51 to i32
  %53 = or i32 %52, %48
  %54 = trunc i32 %53 to i16
  store i16 %54, ptr %50, align 2
  %55 = load i32, ptr %6, align 4
  %56 = icmp sgt i32 %55, 1
  br i1 %56, label %57, label %68

57:                                               ; preds = %34
  %58 = load ptr, ptr %9, align 8
  %59 = load i32, ptr %6, align 4
  %60 = trunc i32 %59 to i16
  %61 = load i32, ptr %7, align 4
  call void @BTreeTupleSetPosting(ptr noundef %58, i16 noundef zeroext %60, i32 noundef %61)
  %62 = load ptr, ptr %9, align 8
  %63 = call ptr @BTreeTupleGetPosting(ptr noundef %62)
  %64 = load ptr, ptr %5, align 8
  %65 = load i32, ptr %6, align 4
  %66 = sext i32 %65 to i64
  %67 = mul i64 6, %66
  call void @llvm.memcpy.p0.p0.i64(ptr align 2 %63, ptr align 2 %64, i64 %67, i1 false)
  br label %78

68:                                               ; preds = %34
  %69 = load ptr, ptr %9, align 8
  %70 = getelementptr inbounds nuw %struct.IndexTupleData, ptr %69, i32 0, i32 1
  %71 = load i16, ptr %70, align 2
  %72 = zext i16 %71 to i32
  %73 = and i32 %72, -8193
  %74 = trunc i32 %73 to i16
  store i16 %74, ptr %70, align 2
  %75 = load ptr, ptr %5, align 8
  %76 = load ptr, ptr %9, align 8
  %77 = getelementptr inbounds nuw %struct.IndexTupleData, ptr %76, i32 0, i32 0
  call void @ItemPointerCopy(ptr noundef %75, ptr noundef %77)
  br label %78

78:                                               ; preds = %68, %57
  %79 = load ptr, ptr %9, align 8
  call void @llvm.lifetime.end.p0(i64 8, ptr %9) #6
  call void @llvm.lifetime.end.p0(i64 4, ptr %8) #6
  call void @llvm.lifetime.end.p0(i64 4, ptr %7) #6
  ret ptr %79
}

; Function Attrs: inlinehint nounwind uwtable
define internal i64 @IndexTupleSize(ptr noundef %0) #2 {
  %2 = alloca ptr, align 8
  store ptr %0, ptr %2, align 8
  %3 = load ptr, ptr %2, align 8
  %4 = getelementptr inbounds nuw %struct.IndexTupleData, ptr %3, i32 0, i32 1
  %5 = load i16, ptr %4, align 2
  %6 = zext i16 %5 to i32
  %7 = and i32 %6, 8191
  %8 = sext i32 %7 to i64
  ret i64 %8
}

; Function Attrs: inlinehint nounwind uwtable
define internal zeroext i16 @PageGetMaxOffsetNumber(ptr noundef %0) #2 {
  %2 = alloca i16, align 2
  %3 = alloca ptr, align 8
  %4 = alloca ptr, align 8
  %5 = alloca i32, align 4
  store ptr %0, ptr %3, align 8
  call void @llvm.lifetime.start.p0(i64 8, ptr %4) #6
  %6 = load ptr, ptr %3, align 8
  store ptr %6, ptr %4, align 8
  %7 = load ptr, ptr %4, align 8
  %8 = getelementptr inbounds nuw %struct.PageHeaderData, ptr %7, i32 0, i32 3
  %9 = load i16, ptr %8, align 4
  %10 = zext i16 %9 to i64
  %11 = icmp ule i64 %10, 24
  br i1 %11, label %12, label %13

12:                                               ; preds = %1
  store i16 0, ptr %2, align 2
  store i32 1, ptr %5, align 4
  br label %21

13:                                               ; preds = %1
  %14 = load ptr, ptr %4, align 8
  %15 = getelementptr inbounds nuw %struct.PageHeaderData, ptr %14, i32 0, i32 3
  %16 = load i16, ptr %15, align 4
  %17 = zext i16 %16 to i64
  %18 = sub i64 %17, 24
  %19 = udiv i64 %18, 4
  %20 = trunc i64 %19 to i16
  store i16 %20, ptr %2, align 2
  store i32 1, ptr %5, align 4
  br label %21

21:                                               ; preds = %13, %12
  call void @llvm.lifetime.end.p0(i64 8, ptr %4) #6
  %22 = load i16, ptr %2, align 2
  ret i16 %22
}

; Function Attrs: nounwind uwtable
define dso_local i64 @_bt_dedup_finish_pending(ptr noundef %0, ptr noundef %1) #0 {
  %3 = alloca ptr, align 8
  %4 = alloca ptr, align 8
  %5 = alloca i16, align 2
  %6 = alloca i64, align 8
  %7 = alloca i64, align 8
  %8 = alloca ptr, align 8
  store ptr %0, ptr %3, align 8
  store ptr %1, ptr %4, align 8
  call void @llvm.lifetime.start.p0(i64 2, ptr %5) #6
  call void @llvm.lifetime.start.p0(i64 8, ptr %6) #6
  call void @llvm.lifetime.start.p0(i64 8, ptr %7) #6
  %9 = load ptr, ptr %3, align 8
  %10 = call zeroext i16 @PageGetMaxOffsetNumber(ptr noundef %9)
  %11 = zext i16 %10 to i32
  %12 = add i32 1, %11
  %13 = trunc i32 %12 to i16
  store i16 %13, ptr %5, align 2
  %14 = load ptr, ptr %4, align 8
  %15 = getelementptr inbounds nuw %struct.BTDedupStateData, ptr %14, i32 0, i32 8
  %16 = load i32, ptr %15, align 4
  %17 = icmp eq i32 %16, 1
  br i1 %17, label %18, label %44

18:                                               ; preds = %2
  %19 = load ptr, ptr %4, align 8
  %20 = getelementptr inbounds nuw %struct.BTDedupStateData, ptr %19, i32 0, i32 3
  %21 = load ptr, ptr %20, align 8
  %22 = call i64 @IndexTupleSize(ptr noundef %21)
  store i64 %22, ptr %6, align 8
  %23 = load ptr, ptr %3, align 8
  %24 = load ptr, ptr %4, align 8
  %25 = getelementptr inbounds nuw %struct.BTDedupStateData, ptr %24, i32 0, i32 3
  %26 = load ptr, ptr %25, align 8
  %27 = load i64, ptr %6, align 8
  %28 = load i16, ptr %5, align 2
  %29 = call zeroext i16 @PageAddItemExtended(ptr noundef %23, ptr noundef %26, i64 noundef %27, i16 noundef zeroext %28, i32 noundef 0)
  %30 = zext i16 %29 to i32
  %31 = icmp eq i32 %30, 0
  br i1 %31, label %32, label %43

32:                                               ; preds = %18
  br label %33

33:                                               ; preds = %32
  br i1 true, label %34, label %36

34:                                               ; preds = %33
  %35 = call zeroext i1 @errstart_cold(i32 noundef 21, ptr noundef null) #7
  br i1 %35, label %38, label %40

36:                                               ; preds = %33
  %37 = call zeroext i1 @errstart(i32 noundef 21, ptr noundef null)
  br i1 %37, label %38, label %40

38:                                               ; preds = %36, %34
  %39 = call i32 (ptr, ...) @errmsg_internal(ptr noundef @.str.2)
  call void @errfinish(ptr noundef @.str.1, i32 noundef 574, ptr noundef @__func__._bt_dedup_finish_pending)
  br label %40

40:                                               ; preds = %38, %36, %34
  unreachable

41:                                               ; No predecessors!
  br label %42

42:                                               ; preds = %41
  br label %43

43:                                               ; preds = %42, %18
  store i64 0, ptr %7, align 8
  br label %99

44:                                               ; preds = %2
  call void @llvm.lifetime.start.p0(i64 8, ptr %8) #6
  %45 = load ptr, ptr %4, align 8
  %46 = getelementptr inbounds nuw %struct.BTDedupStateData, ptr %45, i32 0, i32 3
  %47 = load ptr, ptr %46, align 8
  %48 = load ptr, ptr %4, align 8
  %49 = getelementptr inbounds nuw %struct.BTDedupStateData, ptr %48, i32 0, i32 6
  %50 = load ptr, ptr %49, align 8
  %51 = load ptr, ptr %4, align 8
  %52 = getelementptr inbounds nuw %struct.BTDedupStateData, ptr %51, i32 0, i32 7
  %53 = load i32, ptr %52, align 8
  %54 = call ptr @_bt_form_posting(ptr noundef %47, ptr noundef %50, i32 noundef %53)
  store ptr %54, ptr %8, align 8
  %55 = load ptr, ptr %8, align 8
  %56 = call i64 @IndexTupleSize(ptr noundef %55)
  store i64 %56, ptr %6, align 8
  %57 = load ptr, ptr %4, align 8
  %58 = getelementptr inbounds nuw %struct.BTDedupStateData, ptr %57, i32 0, i32 8
  %59 = load i32, ptr %58, align 4
  %60 = trunc i32 %59 to i16
  %61 = load ptr, ptr %4, align 8
  %62 = getelementptr inbounds nuw %struct.BTDedupStateData, ptr %61, i32 0, i32 11
  %63 = load ptr, ptr %4, align 8
  %64 = getelementptr inbounds nuw %struct.BTDedupStateData, ptr %63, i32 0, i32 10
  %65 = load i32, ptr %64, align 8
  %66 = sext i32 %65 to i64
  %67 = getelementptr inbounds [408 x %struct.BTDedupInterval], ptr %62, i64 0, i64 %66
  %68 = getelementptr inbounds nuw %struct.BTDedupInterval, ptr %67, i32 0, i32 1
  store i16 %60, ptr %68, align 2
  %69 = load ptr, ptr %3, align 8
  %70 = load ptr, ptr %8, align 8
  %71 = load i64, ptr %6, align 8
  %72 = load i16, ptr %5, align 2
  %73 = call zeroext i16 @PageAddItemExtended(ptr noundef %69, ptr noundef %70, i64 noundef %71, i16 noundef zeroext %72, i32 noundef 0)
  %74 = zext i16 %73 to i32
  %75 = icmp eq i32 %74, 0
  br i1 %75, label %76, label %87

76:                                               ; preds = %44
  br label %77

77:                                               ; preds = %76
  br i1 true, label %78, label %80

78:                                               ; preds = %77
  %79 = call zeroext i1 @errstart_cold(i32 noundef 21, ptr noundef null) #7
  br i1 %79, label %82, label %84

80:                                               ; preds = %77
  %81 = call zeroext i1 @errstart(i32 noundef 21, ptr noundef null)
  br i1 %81, label %82, label %84

82:                                               ; preds = %80, %78
  %83 = call i32 (ptr, ...) @errmsg_internal(ptr noundef @.str.2)
  call void @errfinish(ptr noundef @.str.1, i32 noundef 594, ptr noundef @__func__._bt_dedup_finish_pending)
  br label %84

84:                                               ; preds = %82, %80, %78
  unreachable

85:                                               ; No predecessors!
  br label %86

86:                                               ; preds = %85
  br label %87

87:                                               ; preds = %86, %44
  %88 = load ptr, ptr %8, align 8
  call void @pfree(ptr noundef %88)
  %89 = load ptr, ptr %4, align 8
  %90 = getelementptr inbounds nuw %struct.BTDedupStateData, ptr %89, i32 0, i32 9
  %91 = load i64, ptr %90, align 8
  %92 = load i64, ptr %6, align 8
  %93 = add i64 %92, 4
  %94 = sub i64 %91, %93
  store i64 %94, ptr %7, align 8
  %95 = load ptr, ptr %4, align 8
  %96 = getelementptr inbounds nuw %struct.BTDedupStateData, ptr %95, i32 0, i32 10
  %97 = load i32, ptr %96, align 8
  %98 = add i32 %97, 1
  store i32 %98, ptr %96, align 8
  call void @llvm.lifetime.end.p0(i64 8, ptr %8) #6
  br label %99

99:                                               ; preds = %87, %43
  %100 = load ptr, ptr %4, align 8
  %101 = getelementptr inbounds nuw %struct.BTDedupStateData, ptr %100, i32 0, i32 7
  store i32 0, ptr %101, align 8
  %102 = load ptr, ptr %4, align 8
  %103 = getelementptr inbounds nuw %struct.BTDedupStateData, ptr %102, i32 0, i32 8
  store i32 0, ptr %103, align 4
  %104 = load ptr, ptr %4, align 8
  %105 = getelementptr inbounds nuw %struct.BTDedupStateData, ptr %104, i32 0, i32 9
  store i64 0, ptr %105, align 8
  %106 = load i64, ptr %7, align 8
  call void @llvm.lifetime.end.p0(i64 8, ptr %7) #6
  call void @llvm.lifetime.end.p0(i64 8, ptr %6) #6
  call void @llvm.lifetime.end.p0(i64 2, ptr %5) #6
  ret i64 %106
}