; Function Attrs: nounwind uwtable
define dso_local i64 @_bt_dedup_finish_pending(ptr noundef %0, ptr noundef captures(none) %1) local_unnamed_addr #0 {
  %3 = getelementptr i8, ptr %0, i64 12
  %.val = load i16, ptr %3, align 4
  %4 = icmp ult i16 %.val, 25
  %5 = zext i16 %.val to i32
  %6 = add nuw nsw i32 %5, 262120
  %7 = lshr i32 %6, 2
  %8 = trunc i32 %7 to i16
  %9 = add nuw nsw i16 %8, 1
  %narrow = select i1 %4, i16 1, i16 %9
  %10 = getelementptr inbounds nuw i8, ptr %1, i64 52
  %11 = load i32, ptr %10, align 4
  %12 = icmp eq i32 %11, 1
  %13 = getelementptr inbounds nuw i8, ptr %1, i64 16
  %14 = load ptr, ptr %13, align 8
  br i1 %12, label %15, label %24

15:                                               ; preds = %2
  %16 = getelementptr i8, ptr %14, i64 6
  %.val25 = load i16, ptr %16, align 2
  %17 = and i16 %.val25, 8191
  %18 = zext nneg i16 %17 to i64
  %19 = tail call zeroext i16 @PageAddItemExtended(ptr noundef nonnull %0, ptr noundef %14, i64 noundef %18, i16 noundef zeroext %narrow, i32 noundef 0) #10
  %20 = icmp eq i16 %19, 0
  br i1 %20, label %21, label %91

21:                                               ; preds = %15
  %22 = tail call zeroext i1 @errstart_cold(i32 noundef 21, ptr noundef null) #11
  tail call void @llvm.assume(i1 %22)
  %23 = tail call i32 (ptr, ...) @errmsg_internal(ptr noundef nonnull @.str.2) #10
  tail call void @errfinish(ptr noundef nonnull @.str.1, i32 noundef 574, ptr noundef nonnull @__func__._bt_dedup_finish_pending) #10
  unreachable

24:                                               ; preds = %2
  %25 = getelementptr inbounds nuw i8, ptr %1, i64 40
  %26 = load ptr, ptr %25, align 8
  %27 = getelementptr inbounds nuw i8, ptr %1, i64 48
  %28 = load i32, ptr %27, align 8
  %29 = getelementptr inbounds nuw i8, ptr %14, i64 6
  %30 = load i16, ptr %29, align 2
  %31 = and i16 %30, 8192
  %32 = icmp eq i16 %31, 0
  br i1 %32, label %BTreeTupleIsPosting.exit.thread.i, label %BTreeTupleIsPosting.exit.i

BTreeTupleIsPosting.exit.i:                       ; preds = %24
  %33 = getelementptr i8, ptr %14, i64 4
  %.val.i.i = load i16, ptr %33, align 2
  %34 = and i16 %.val.i.i, 8192
  %.not.i = icmp eq i16 %34, 0
  br i1 %.not.i, label %BTreeTupleIsPosting.exit.thread.i, label %35

35:                                               ; preds = %BTreeTupleIsPosting.exit.i
  %.val26.i = load i16, ptr %14, align 2
  %36 = getelementptr i8, ptr %14, i64 2
  %.val27.i = load i16, ptr %36, align 2
  %37 = zext i16 %.val26.i to i32
  %38 = shl nuw i32 %37, 16
  %39 = zext i16 %.val27.i to i32
  %40 = or disjoint i32 %38, %39
  br label %43

BTreeTupleIsPosting.exit.thread.i:                ; preds = %BTreeTupleIsPosting.exit.i, %24
  %41 = and i16 %30, 8191
  %42 = zext nneg i16 %41 to i32
  br label %43

43:                                               ; preds = %BTreeTupleIsPosting.exit.thread.i, %35
  %.0.i27 = phi i32 [ %40, %35 ], [ %42, %BTreeTupleIsPosting.exit.thread.i ]
  %44 = icmp sgt i32 %28, 1
  %45 = mul i32 %28, 6
  %46 = add i32 %45, 7
  %47 = add i32 %46, %.0.i27
  %48 = and i32 %47, -8
  %.024.i = select i1 %44, i32 %48, i32 %.0.i27
  %49 = zext i32 %.024.i to i64
  %50 = tail call ptr @palloc0(i64 noundef %49) #10
  %51 = zext i32 %.0.i27 to i64
  tail call void @llvm.memcpy.p0.p0.i64(ptr align 2 %50, ptr nonnull readonly align 2 %14, i64 %51, i1 false)
  %52 = getelementptr inbounds nuw i8, ptr %50, i64 6
  %53 = load i16, ptr %52, align 2
  %54 = and i16 %53, -8192
  %55 = trunc i32 %.024.i to i16
  %56 = or i16 %54, %55
  br i1 %44, label %57, label %69

57:                                               ; preds = %43
  %58 = trunc i32 %28 to i16
  %59 = or i16 %56, 8192
  store i16 %59, ptr %52, align 2
  %60 = or i16 %58, 8192
  %61 = getelementptr inbounds nuw i8, ptr %50, i64 4
  store i16 %60, ptr %61, align 2
  %62 = lshr i32 %.0.i27, 16
  %63 = trunc nuw i32 %62 to i16
  store i16 %63, ptr %50, align 2
  %64 = trunc i32 %.0.i27 to i16
  %65 = getelementptr inbounds nuw i8, ptr %50, i64 2
  store i16 %64, ptr %65, align 2
  %66 = getelementptr inbounds nuw i8, ptr %50, i64 %51
  %67 = zext nneg i32 %28 to i64
  %68 = mul nuw nsw i64 %67, 6
  tail call void @llvm.memcpy.p0.p0.i64(ptr nonnull align 2 %66, ptr readonly align 2 %26, i64 %68, i1 false)
  %.val26.pre = load i16, ptr %52, align 2
  br label %_bt_form_posting.exit

69:                                               ; preds = %43
  %70 = and i16 %56, -8193
  store i16 %70, ptr %52, align 2
  tail call void @llvm.memcpy.p0.p0.i64(ptr noundef nonnull align 2 dereferenceable(6) %50, ptr noundef nonnull readonly align 2 dereferenceable(6) %26, i64 6, i1 false)
  br label %_bt_form_posting.exit

_bt_form_posting.exit:                            ; preds = %57, %69
  %.val26 = phi i16 [ %.val26.pre, %57 ], [ %70, %69 ]
  %71 = and i16 %.val26, 8191
  %72 = zext nneg i16 %71 to i64
  %73 = load i32, ptr %10, align 4
  %74 = trunc i32 %73 to i16
  %75 = getelementptr inbounds nuw i8, ptr %1, i64 64
  %76 = load i32, ptr %75, align 8
  %77 = sext i32 %76 to i64
  %.idx = shl nsw i64 %77, 2
  %78 = getelementptr i8, ptr %1, i64 70
  %79 = getelementptr i8, ptr %78, i64 %.idx
  store i16 %74, ptr %79, align 2
  %80 = tail call zeroext i16 @PageAddItemExtended(ptr noundef nonnull %0, ptr noundef nonnull %50, i64 noundef %72, i16 noundef zeroext %narrow, i32 noundef 0) #10
  %81 = icmp eq i16 %80, 0
  br i1 %81, label %82, label %85

82:                                               ; preds = %_bt_form_posting.exit
  %83 = tail call zeroext i1 @errstart_cold(i32 noundef 21, ptr noundef null) #11
  tail call void @llvm.assume(i1 %83)
  %84 = tail call i32 (ptr, ...) @errmsg_internal(ptr noundef nonnull @.str.2) #10
  tail call void @errfinish(ptr noundef nonnull @.str.1, i32 noundef 594, ptr noundef nonnull @__func__._bt_dedup_finish_pending) #10
  unreachable

85:                                               ; preds = %_bt_form_posting.exit
  tail call void @pfree(ptr noundef nonnull %50) #10
  %86 = getelementptr inbounds nuw i8, ptr %1, i64 56
  %87 = load i64, ptr %86, align 8
  %reass.sub = sub i64 %87, %72
  %88 = add i64 %reass.sub, -4
  %89 = load i32, ptr %75, align 8
  %90 = add i32 %89, 1
  store i32 %90, ptr %75, align 8
  br label %91

91:                                               ; preds = %15, %85
  %.0 = phi i64 [ %88, %85 ], [ 0, %15 ]
  %92 = getelementptr inbounds nuw i8, ptr %1, i64 48
  tail call void @llvm.memset.p0.i64(ptr noundef nonnull align 8 dereferenceable(16) %92, i8 0, i64 16, i1 false)
  ret i64 %.0
}